target datalayout = "e-m:e-p270:32:32-p271:32:32-p272:64:64-i64:64-i128:128-f80:128-n8:16:32:64-S128"
target triple = "x86_64-unknown-linux-gnu"

%"class.node::MutexBase" = type { %union.pthread_mutex_t }
%union.pthread_mutex_t = type { %struct.__pthread_mutex_s }
%struct.__pthread_mutex_s = type { i32, i32, i32, i32, i32, i16, i16, %struct.__pthread_internal_list }
%struct.__pthread_internal_list = type { ptr, ptr }
%"struct.std::atomic" = type { %"struct.std::__atomic_base" }
%"struct.std::__atomic_base" = type { i8 }
%struct.uv_async_s = type { ptr, ptr, i32, ptr, %struct.uv__queue, %union.anon.31, ptr, i32, ptr, %struct.uv__queue, i32 }
%union.anon.31 = type { [4 x ptr] }
%struct.uv__queue = type { ptr, ptr }
%"class.node::EnabledDebugList" = type { [75 x i8] }
%"class.std::shared_ptr.16" = type { %"class.std::__shared_ptr.17" }
%"class.std::__shared_ptr.17" = type { ptr, %"class.std::__shared_count" }
%"class.std::__shared_count" = type { ptr }
%"class.std::__cxx11::basic_string" = type { %"struct.std::__cxx11::basic_string<char>::_Alloc_hider", i64, %union.anon }
%"struct.std::__cxx11::basic_string<char>::_Alloc_hider" = type { ptr }
%union.anon = type { i64, [8 x i8] }
%"class.std::shared_ptr.10" = type { %"class.std::__shared_ptr.11" }
%"class.std::__shared_ptr.11" = type { ptr, %"class.std::__shared_count" }
%"class.node::Environment" = type { %"class.node::MemoryRetainer", %"class.std::unordered_multimap", %"class.std::__cxx11::list", ptr, ptr, %struct.uv_timer_s, %struct.uv_check_s, %struct.uv_idle_s, %struct.uv_prepare_s, %struct.uv_check_s, %struct.uv_async_s, i64, %"struct.std::atomic", %"struct.std::atomic", %"class.node::AsyncHooks", %"class.node::ImmediateInfo", %"class.node::AliasedBufferBase.44", %"class.node::TickInfo", %"class.node::permission::Permission", i64, %"class.std::shared_ptr.69", i8, i8, i8, i8, i8, i8, i64, %"class.std::vector.72", %"class.std::unordered_set", %"class.std::unique_ptr.96", %"class.std::unique_ptr.104", %"class.std::__cxx11::basic_string", %"class.std::__cxx11::basic_string", %"class.std::__cxx11::basic_string", i64, %"class.std::unique_ptr.112", %"class.std::__cxx11::basic_string", %"class.std::__cxx11::basic_string", i64, %"class.std::shared_ptr.16", %"class.std::shared_ptr.10", %"class.std::vector", %"class.std::vector", %"class.std::__cxx11::basic_string", i8, i32, i32, i8, i32, i32, i32, i32, %"class.node::AliasedBufferBase.44", %"class.node::AliasedBufferBase.32", i32, %"class.std::unique_ptr.120", %"class.node::AliasedBufferBase.44", i64, double, i64, %"class.std::unique_ptr.128", i8, i64, i64, %"class.std::unordered_set.136", %"class.std::unique_ptr.156", i8, %"class.std::__cxx11::list.164", %"class.node::ListHead", %"class.node::ListHead.169", %"class.std::__cxx11::list.171", i32, i32, %"class.node::EnabledDebugList", %"class.std::vector.176", %"class.std::__cxx11::list.181", %"class.node::MutexBase", %"class.std::__cxx11::list.186", %"class.node::CallbackQueue", %"class.node::MutexBase", %"class.node::CallbackQueue", %"class.node::CallbackQueue", i8, %"struct.std::atomic.201", %"class.node::CleanupQueue", i8, %"class.std::unordered_set.219", %"class.std::function", %"class.std::unique_ptr.234", %"class.node::builtins::BuiltinLoader", %"class.std::function.248", %"class.std::unordered_map.250" }
%"class.node::MemoryRetainer" = type { ptr }
%"class.std::unordered_multimap" = type { %"class.std::_Hashtable" }
%"class.std::_Hashtable" = type { ptr, i64, %"struct.std::__detail::_Hash_node_base", i64, %"struct.std::__detail::_Prime_rehash_policy", ptr }
%"struct.std::__detail::_Hash_node_base" = type { ptr }
%"struct.std::__detail::_Prime_rehash_policy" = type { float, i64 }
%"class.std::__cxx11::list" = type { %"class.std::__cxx11::_List_base" }
%"class.std::__cxx11::_List_base" = type { %"struct.std::__cxx11::_List_base<node::binding::DLib, std::allocator<node::binding::DLib>>::_List_impl" }
%"struct.std::__cxx11::_List_base<node::binding::DLib, std::allocator<node::binding::DLib>>::_List_impl" = type { %"struct.std::__detail::_List_node_header" }
%"struct.std::__detail::_List_node_header" = type { %"struct.std::__detail::_List_node_base", i64 }
%"struct.std::__detail::_List_node_base" = type { ptr, ptr }
%struct.uv_timer_s = type { ptr, ptr, i32, ptr, %struct.uv__queue, %union.anon.27, ptr, i32, ptr, [3 x ptr], i64, i64, i64 }
%union.anon.27 = type { [4 x ptr] }
%struct.uv_idle_s = type { ptr, ptr, i32, ptr, %struct.uv__queue, %union.anon.29, ptr, i32, ptr, %struct.uv__queue }
%union.anon.29 = type { [4 x ptr] }
%struct.uv_prepare_s = type { ptr, ptr, i32, ptr, %struct.uv__queue, %union.anon.30, ptr, i32, ptr, %struct.uv__queue }
%union.anon.30 = type { [4 x ptr] }
%struct.uv_check_s = type { ptr, ptr, i32, ptr, %struct.uv__queue, %union.anon.28, ptr, i32, ptr, %struct.uv__queue }
%union.anon.28 = type { [4 x ptr] }
%"class.node::AsyncHooks" = type { %"class.node::MemoryRetainer", %"class.node::AliasedBufferBase", %"class.node::AliasedBufferBase.32", %"class.node::AliasedBufferBase", %"class.v8::Global.35", %"class.std::vector.37", ptr, %"struct.std::array" }
%"class.node::AliasedBufferBase" = type { %"class.node::MemoryRetainer", ptr, i64, i64, ptr, %"class.v8::Global", ptr }
%"class.v8::Global" = type { %"class.v8::PersistentBase" }
%"class.v8::PersistentBase" = type { %"class.v8::IndirectHandleBase" }
%"class.v8::IndirectHandleBase" = type { ptr }
%"class.v8::Global.35" = type { %"class.v8::PersistentBase.36" }
%"class.v8::PersistentBase.36" = type { %"class.v8::IndirectHandleBase" }
%"class.std::vector.37" = type { %"struct.std::_Vector_base.38" }
%"struct.std::_Vector_base.38" = type { %"struct.std::_Vector_base<v8::Local<v8::Object>, std::allocator<v8::Local<v8::Object>>>::_Vector_impl" }
%"struct.std::_Vector_base<v8::Local<v8::Object>, std::allocator<v8::Local<v8::Object>>>::_Vector_impl" = type { %"struct.std::_Vector_base<v8::Local<v8::Object>, std::allocator<v8::Local<v8::Object>>>::_Vector_impl_data" }
%"struct.std::_Vector_base<v8::Local<v8::Object>, std::allocator<v8::Local<v8::Object>>>::_Vector_impl_data" = type { ptr, ptr, ptr }
%"struct.std::array" = type { [4 x %"class.v8::Global.42"] }
%"class.v8::Global.42" = type { %"class.v8::PersistentBase.43" }
%"class.v8::PersistentBase.43" = type { %"class.v8::IndirectHandleBase" }
%"class.node::ImmediateInfo" = type { %"class.node::MemoryRetainer", %"class.node::AliasedBufferBase.32" }
%"class.node::TickInfo" = type { %"class.node::MemoryRetainer", %"class.node::AliasedBufferBase.47" }
%"class.node::AliasedBufferBase.47" = type { %"class.node::MemoryRetainer", ptr, i64, i64, ptr, %"class.v8::Global.48", ptr }
%"class.v8::Global.48" = type { %"class.v8::PersistentBase.49" }
%"class.v8::PersistentBase.49" = type { %"class.v8::IndirectHandleBase" }
%"class.node::permission::Permission" = type <{ %"class.std::unordered_map", i8, [7 x i8] }>
%"class.std::unordered_map" = type { %"class.std::_Hashtable.50" }
%"class.std::_Hashtable.50" = type { ptr, i64, %"struct.std::__detail::_Hash_node_base", i64, %"struct.std::__detail::_Prime_rehash_policy", ptr }
%"class.std::shared_ptr.69" = type { %"class.std::__shared_ptr.70" }
%"class.std::__shared_ptr.70" = type { ptr, %"class.std::__shared_count" }
%"class.std::vector.72" = type { %"struct.std::_Vector_base.73" }
%"struct.std::_Vector_base.73" = type { %"struct.std::_Vector_base<double, std::allocator<double>>::_Vector_impl" }
%"struct.std::_Vector_base<double, std::allocator<double>>::_Vector_impl" = type { %"struct.std::_Vector_base<double, std::allocator<double>>::_Vector_impl_data" }
%"struct.std::_Vector_base<double, std::allocator<double>>::_Vector_impl_data" = type { ptr, ptr, ptr }
%"class.std::unordered_set" = type { %"class.std::_Hashtable.77" }
%"class.std::_Hashtable.77" = type { ptr, i64, %"struct.std::__detail::_Hash_node_base", i64, %"struct.std::__detail::_Prime_rehash_policy", ptr }
%"class.std::unique_ptr.96" = type { %"struct.std::__uniq_ptr_data.97" }
%"struct.std::__uniq_ptr_data.97" = type { %"class.std::__uniq_ptr_impl.98" }
%"class.std::__uniq_ptr_impl.98" = type { %"class.std::tuple.99" }
%"class.std::tuple.99" = type { %"struct.std::_Tuple_impl.100" }
%"struct.std::_Tuple_impl.100" = type { %"struct.std::_Head_base.103" }
%"struct.std::_Head_base.103" = type { ptr }
%"class.std::unique_ptr.104" = type { %"struct.std::__uniq_ptr_data.105" }
%"struct.std::__uniq_ptr_data.105" = type { %"class.std::__uniq_ptr_impl.106" }
%"class.std::__uniq_ptr_impl.106" = type { %"class.std::tuple.107" }
%"class.std::tuple.107" = type { %"struct.std::_Tuple_impl.108" }
%"struct.std::_Tuple_impl.108" = type { %"struct.std::_Head_base.111" }
%"struct.std::_Head_base.111" = type { ptr }
%"class.std::unique_ptr.112" = type { %"struct.std::__uniq_ptr_data.113" }
%"struct.std::__uniq_ptr_data.113" = type { %"class.std::__uniq_ptr_impl.114" }
%"class.std::__uniq_ptr_impl.114" = type { %"class.std::tuple.115" }
%"class.std::tuple.115" = type { %"struct.std::_Tuple_impl.116" }
%"struct.std::_Tuple_impl.116" = type { %"struct.std::_Head_base.119" }
%"struct.std::_Head_base.119" = type { ptr }
%"class.std::vector" = type { %"struct.std::_Vector_base" }
%"struct.std::_Vector_base" = type { %"struct.std::_Vector_base<std::__cxx11::basic_string<char>, std::allocator<std::__cxx11::basic_string<char>>>::_Vector_impl" }
%"struct.std::_Vector_base<std::__cxx11::basic_string<char>, std::allocator<std::__cxx11::basic_string<char>>>::_Vector_impl" = type { %"struct.std::_Vector_base<std::__cxx11::basic_string<char>, std::allocator<std::__cxx11::basic_string<char>>>::_Vector_impl_data" }
%"struct.std::_Vector_base<std::__cxx11::basic_string<char>, std::allocator<std::__cxx11::basic_string<char>>>::_Vector_impl_data" = type { ptr, ptr, ptr }
%"class.node::AliasedBufferBase.32" = type { %"class.node::MemoryRetainer", ptr, i64, i64, ptr, %"class.v8::Global.33", ptr }
%"class.v8::Global.33" = type { %"class.v8::PersistentBase.34" }
%"class.v8::PersistentBase.34" = type { %"class.v8::IndirectHandleBase" }
%"class.std::unique_ptr.120" = type { %"struct.std::__uniq_ptr_data.121" }
%"struct.std::__uniq_ptr_data.121" = type { %"class.std::__uniq_ptr_impl.122" }
%"class.std::__uniq_ptr_impl.122" = type { %"class.std::tuple.123" }
%"class.std::tuple.123" = type { %"struct.std::_Tuple_impl.124" }
%"struct.std::_Tuple_impl.124" = type { %"struct.std::_Head_base.127" }
%"struct.std::_Head_base.127" = type { ptr }
%"class.node::AliasedBufferBase.44" = type { %"class.node::MemoryRetainer", ptr, i64, i64, ptr, %"class.v8::Global.45", ptr }
%"class.v8::Global.45" = type { %"class.v8::PersistentBase.46" }
%"class.v8::PersistentBase.46" = type { %"class.v8::IndirectHandleBase" }
%"class.std::unique_ptr.128" = type { %"struct.std::__uniq_ptr_data.129" }
%"struct.std::__uniq_ptr_data.129" = type { %"class.std::__uniq_ptr_impl.130" }
%"class.std::__uniq_ptr_impl.130" = type { %"class.std::tuple.131" }
%"class.std::tuple.131" = type { %"struct.std::_Tuple_impl.132" }
%"struct.std::_Tuple_impl.132" = type { %"struct.std::_Head_base.135" }
%"struct.std::_Head_base.135" = type { ptr }
%"class.std::unordered_set.136" = type { %"class.std::_Hashtable.137" }
%"class.std::_Hashtable.137" = type { ptr, i64, %"struct.std::__detail::_Hash_node_base", i64, %"struct.std::__detail::_Prime_rehash_policy", ptr }
%"class.std::unique_ptr.156" = type { %"struct.std::__uniq_ptr_data.157" }
%"struct.std::__uniq_ptr_data.157" = type { %"class.std::__uniq_ptr_impl.158" }
%"class.std::__uniq_ptr_impl.158" = type { %"class.std::tuple.159" }
%"class.std::tuple.159" = type { %"struct.std::_Tuple_impl.160" }
%"struct.std::_Tuple_impl.160" = type { %"struct.std::_Head_base.163" }
%"struct.std::_Head_base.163" = type { ptr }
%"class.std::__cxx11::list.164" = type { %"class.std::__cxx11::_List_base.165" }
%"class.std::__cxx11::_List_base.165" = type { %"struct.std::__cxx11::_List_base<node::DeserializeRequest, std::allocator<node::DeserializeRequest>>::_List_impl" }
%"struct.std::__cxx11::_List_base<node::DeserializeRequest, std::allocator<node::DeserializeRequest>>::_List_impl" = type { %"struct.std::__detail::_List_node_header" }
%"class.node::ListHead" = type { %"class.node::ListNode" }
%"class.node::ListNode" = type { ptr, ptr }
%"class.node::ListHead.169" = type { %"class.node::ListNode.170" }
%"class.node::ListNode.170" = type { ptr, ptr }
%"class.std::__cxx11::list.171" = type { %"class.std::__cxx11::_List_base.172" }
%"class.std::__cxx11::_List_base.172" = type { %"struct.std::__cxx11::_List_base<node::Environment::HandleCleanup, std::allocator<node::Environment::HandleCleanup>>::_List_impl" }
%"struct.std::__cxx11::_List_base<node::Environment::HandleCleanup, std::allocator<node::Environment::HandleCleanup>>::_List_impl" = type { %"struct.std::__detail::_List_node_header" }
%"class.std::vector.176" = type { %"struct.std::_Vector_base.177" }
%"struct.std::_Vector_base.177" = type { %"struct.std::_Vector_base<v8::Global<v8::Context>, std::allocator<v8::Global<v8::Context>>>::_Vector_impl" }
%"struct.std::_Vector_base<v8::Global<v8::Context>, std::allocator<v8::Global<v8::Context>>>::_Vector_impl" = type { %"struct.std::_Vector_base<v8::Global<v8::Context>, std::allocator<v8::Global<v8::Context>>>::_Vector_impl_data" }
%"struct.std::_Vector_base<v8::Global<v8::Context>, std::allocator<v8::Global<v8::Context>>>::_Vector_impl_data" = type { ptr, ptr, ptr }
%"class.std::__cxx11::list.181" = type { %"class.std::__cxx11::_List_base.182" }
%"class.std::__cxx11::_List_base.182" = type { %"struct.std::__cxx11::_List_base<node::node_module, std::allocator<node::node_module>>::_List_impl" }
%"struct.std::__cxx11::_List_base<node::node_module, std::allocator<node::node_module>>::_List_impl" = type { %"struct.std::__detail::_List_node_header" }
%"class.std::__cxx11::list.186" = type { %"class.std::__cxx11::_List_base.187" }
%"class.std::__cxx11::_List_base.187" = type { %"struct.std::__cxx11::_List_base<node::Environment::ExitCallback, std::allocator<node::Environment::ExitCallback>>::_List_impl" }
%"struct.std::__cxx11::_List_base<node::Environment::ExitCallback, std::allocator<node::Environment::ExitCallback>>::_List_impl" = type { %"struct.std::__detail::_List_node_header" }
%"class.node::CallbackQueue" = type { %"struct.std::atomic.191", %"class.std::unique_ptr.193", ptr }
%"struct.std::atomic.191" = type { %"struct.std::__atomic_base.192" }
%"struct.std::__atomic_base.192" = type { i64 }
%"class.std::unique_ptr.193" = type { %"struct.std::__uniq_ptr_data.194" }
%"struct.std::__uniq_ptr_data.194" = type { %"class.std::__uniq_ptr_impl.195" }
%"class.std::__uniq_ptr_impl.195" = type { %"class.std::tuple.196" }
%"class.std::tuple.196" = type { %"struct.std::_Tuple_impl.197" }
%"struct.std::_Tuple_impl.197" = type { %"struct.std::_Head_base.200" }
%"struct.std::_Head_base.200" = type { ptr }
%"struct.std::atomic.201" = type { %"struct.std::__atomic_base.202" }
%"struct.std::__atomic_base.202" = type { ptr }
%"class.node::CleanupQueue" = type { %"class.node::MemoryRetainer", %"class.std::unordered_set.203", i64 }
%"class.std::unordered_set.203" = type { %"class.std::_Hashtable.204" }
%"class.std::_Hashtable.204" = type { ptr, i64, %"struct.std::__detail::_Hash_node_base", i64, %"struct.std::__detail::_Prime_rehash_policy", ptr }
%"class.std::unordered_set.219" = type { %"class.std::_Hashtable.220" }
%"class.std::_Hashtable.220" = type { ptr, i64, %"struct.std::__detail::_Hash_node_base", i64, %"struct.std::__detail::_Prime_rehash_policy", ptr }
%"class.std::function" = type { %"class.std::_Function_base", ptr }
%"class.std::_Function_base" = type { %"union.std::_Any_data", ptr }
%"union.std::_Any_data" = type { %"union.std::_Nocopy_types" }
%"union.std::_Nocopy_types" = type { { i64, i64 } }
%"class.std::unique_ptr.234" = type { %"struct.std::__uniq_ptr_data.235" }
%"struct.std::__uniq_ptr_data.235" = type { %"class.std::__uniq_ptr_impl.236" }
%"class.std::__uniq_ptr_impl.236" = type { %"class.std::tuple.237" }
%"class.std::tuple.237" = type { %"struct.std::_Tuple_impl.238" }
%"struct.std::_Tuple_impl.238" = type { %"struct.std::_Head_base.241" }
%"struct.std::_Head_base.241" = type { ptr }
%"class.node::builtins::BuiltinLoader" = type { %"class.node::ThreadsafeCopyOnWrite", %"class.node::UnionBytes", %"class.std::shared_ptr.245" }
%"class.node::ThreadsafeCopyOnWrite" = type { %"class.node::CopyOnWrite" }
%"class.node::CopyOnWrite" = type { %"class.std::shared_ptr.242" }
%"class.std::shared_ptr.242" = type { %"class.std::__shared_ptr.243" }
%"class.std::__shared_ptr.243" = type { ptr, %"class.std::__shared_count" }
%"class.node::UnionBytes" = type { ptr, ptr }
%"class.std::shared_ptr.245" = type { %"class.std::__shared_ptr.246" }
%"class.std::__shared_ptr.246" = type { ptr, %"class.std::__shared_count" }
%"class.std::function.248" = type { %"class.std::_Function_base", ptr }
%"class.std::unordered_map.250" = type { %"class.std::_Hashtable.251" }
%"class.std::_Hashtable.251" = type { ptr, i64, %"struct.std::__detail::_Hash_node_base", i64, %"struct.std::__detail::_Prime_rehash_policy", ptr }
%"class.node::MutexBase<node::LibuvMutexTraits>::ScopedLock" = type { ptr }
%class.anon = type { i8 }
%class.anon.459 = type { i8 }
%struct.CloseData = type { ptr, %class.anon.457, ptr }
%class.anon.457 = type { i8 }

@_ZN4node9inspector12_GLOBAL__N_127start_io_thread_async_mutexE = internal global %"class.node::MutexBase" zeroinitializer, align 8
@_ZN4node9inspector12_GLOBAL__N_121start_io_thread_asyncE = internal global %struct.uv_async_s zeroinitializer, align 8

; Function Attrs: mustprogress nounwind uwtable
define internal noundef ptr @"_ZZN4node11Environment11CloseHandleI10uv_async_sZZNS_9inspector5Agent5StartERKNSt7__cxx1112basic_stringIcSt11char_traitsIcESaIcEEERKNS_12DebugOptionsESt10shared_ptrINS_15ExclusiveAccessINS_8HostPortENS_9MutexBaseINS_16LibuvMutexTraitsEEEEEEbENK3$_0clEPvEUlPS2_E_EEvPT_T0_ENKUlP11uv_handle_sE_cvPFvSW_EEv"(ptr noundef nonnull align 1 dereferenceable(1) %this) #4 align 2 {
entry:
  %this.addr = alloca ptr, align 8
  store ptr %this, ptr %this.addr, align 8
  ret ptr @"_ZZN4node11Environment11CloseHandleI10uv_async_sZZNS_9inspector5Agent5StartERKNSt7__cxx1112basic_stringIcSt11char_traitsIcESaIcEEERKNS_12DebugOptionsESt10shared_ptrINS_15ExclusiveAccessINS_8HostPortENS_9MutexBaseINS_16LibuvMutexTraitsEEEEEEbENK3$_0clEPvEUlPS2_E_EEvPT_T0_ENUlP11uv_handle_sE_8__invokeESW_"
}

; Function Attrs: mustprogress nounwind uwtable
define linkonce_odr dso_local void @_ZN4node16LibuvMutexTraits12mutex_unlockEP15pthread_mutex_t(ptr noundef %mutex) #4 comdat align 2 {
entry:
  %mutex.addr = alloca ptr, align 8
  store ptr %mutex, ptr %mutex.addr, align 8
  %0 = load ptr, ptr %mutex.addr, align 8
  call void @uv_mutex_unlock(ptr noundef %0)
  ret void
}

; Function Attrs: mustprogress nounwind uwtable
define linkonce_odr dso_local void @_ZN4node16LibuvMutexTraits10mutex_lockEP15pthread_mutex_t(ptr noundef %mutex) #4 comdat align 2 {
entry:
  %mutex.addr = alloca ptr, align 8
  store ptr %mutex, ptr %mutex.addr, align 8
  %0 = load ptr, ptr %mutex.addr, align 8
  call void @uv_mutex_lock(ptr noundef %0)
  ret void
}

; Function Attrs: mustprogress nounwind uwtable
define internal void @"_ZN4node11Environment11CloseHandleI10uv_async_sZZNS_9inspector5Agent5StartERKNSt7__cxx1112basic_stringIcSt11char_traitsIcESaIcEEERKNS_12DebugOptionsESt10shared_ptrINS_15ExclusiveAccessINS_8HostPortENS_9MutexBaseINS_16LibuvMutexTraitsEEEEEEbENK3$_0clEPvEUlPS2_E_EEvPT_T0_"(ptr noundef nonnull align 8 dereferenceable(2872) %this, ptr noundef %handle) #4 align 2 {
entry:
  %this.addr = alloca ptr, align 8
  %handle.addr = alloca ptr, align 8
  %ref.tmp = alloca %class.anon.459, align 1
  store ptr %this, ptr %this.addr, align 8
  store ptr %handle, ptr %handle.addr, align 8
  %this1 = load ptr, ptr %this.addr, align 8
  %handle_cleanup_waiting_ = getelementptr inbounds %"class.node::Environment", ptr %this1, i32 0, i32 72
  %0 = load i32, ptr %handle_cleanup_waiting_, align 8
  %inc = add nsw i32 %0, 1
  store i32 %inc, ptr %handle_cleanup_waiting_, align 8
  %call = call noalias noundef nonnull ptr @_Znwm(i64 noundef 24) #16
  %env = getelementptr inbounds %struct.CloseData, ptr %call, i32 0, i32 0
  store ptr %this1, ptr %env, align 16
  %original_data = getelementptr inbounds %struct.CloseData, ptr %call, i32 0, i32 2
  %1 = load ptr, ptr %handle.addr, align 8
  %data = getelementptr inbounds %struct.uv_async_s, ptr %1, i32 0, i32 0
  %2 = load ptr, ptr %data, align 8
  store ptr %2, ptr %original_data, align 16
  %3 = load ptr, ptr %handle.addr, align 8
  %data3 = getelementptr inbounds %struct.uv_async_s, ptr %3, i32 0, i32 0
  store ptr %call, ptr %data3, align 8
  %4 = load ptr, ptr %handle.addr, align 8
  %call4 = call noundef ptr @"_ZZN4node11Environment11CloseHandleI10uv_async_sZZNS_9inspector5Agent5StartERKNSt7__cxx1112basic_stringIcSt11char_traitsIcESaIcEEERKNS_12DebugOptionsESt10shared_ptrINS_15ExclusiveAccessINS_8HostPortENS_9MutexBaseINS_16LibuvMutexTraitsEEEEEEbENK3$_0clEPvEUlPS2_E_EEvPT_T0_ENKUlP11uv_handle_sE_cvPFvSW_EEv"(ptr noundef nonnull align 1 dereferenceable(1) %ref.tmp) #3
  call void @uv_close(ptr noundef %4, ptr noundef %call4)
  ret void
}

; Function Attrs: mustprogress nounwind uwtable
define linkonce_odr dso_local void @_ZN4node9MutexBaseINS_16LibuvMutexTraitsEE10ScopedLockD2Ev(ptr noundef nonnull align 8 dereferenceable(8) %this) unnamed_addr #4 comdat align 2 {
entry:
  %this.addr = alloca ptr, align 8
  store ptr %this, ptr %this.addr, align 8
  %this1 = load ptr, ptr %this.addr, align 8
  %mutex_ = getelementptr inbounds %"class.node::MutexBase<node::LibuvMutexTraits>::ScopedLock", ptr %this1, i32 0, i32 0
  %0 = load ptr, ptr %mutex_, align 8
  %mutex_2 = getelementptr inbounds %"class.node::MutexBase", ptr %0, i32 0, i32 0
  call void @_ZN4node16LibuvMutexTraits12mutex_unlockEP15pthread_mutex_t(ptr noundef %mutex_2)
  ret void
}

; Function Attrs: mustprogress nounwind uwtable
define linkonce_odr dso_local void @_ZN4node9MutexBaseINS_16LibuvMutexTraitsEE10ScopedLockC2ERKS2_(ptr noundef nonnull align 8 dereferenceable(8) %this, ptr noundef nonnull align 8 dereferenceable(40) %mutex) unnamed_addr #4 comdat align 2 {
entry:
  %this.addr = alloca ptr, align 8
  %mutex.addr = alloca ptr, align 8
  store ptr %this, ptr %this.addr, align 8
  store ptr %mutex, ptr %mutex.addr, align 8
  %this1 = load ptr, ptr %this.addr, align 8
  %mutex_ = getelementptr inbounds %"class.node::MutexBase<node::LibuvMutexTraits>::ScopedLock", ptr %this1, i32 0, i32 0
  %0 = load ptr, ptr %mutex.addr, align 8
  store ptr %0, ptr %mutex_, align 8
  %mutex_2 = getelementptr inbounds %"class.node::MutexBase<node::LibuvMutexTraits>::ScopedLock", ptr %this1, i32 0, i32 0
  %1 = load ptr, ptr %mutex_2, align 8
  %mutex_3 = getelementptr inbounds %"class.node::MutexBase", ptr %1, i32 0, i32 0
  call void @_ZN4node16LibuvMutexTraits10mutex_lockEP15pthread_mutex_t(ptr noundef %mutex_3)
  ret void
}

; Function Attrs: mustprogress nounwind uwtable
define internal void @"_ZZN4node9inspector5Agent5StartERKNSt7__cxx1112basic_stringIcSt11char_traitsIcESaIcEEERKNS_12DebugOptionsESt10shared_ptrINS_15ExclusiveAccessINS_8HostPortENS_9MutexBaseINS_16LibuvMutexTraitsEEEEEEbENK3$_0clEPv"(ptr noundef nonnull align 1 dereferenceable(1) %this, ptr noundef %data) #4 align 2 {
entry:
  %this.addr = alloca ptr, align 8
  %data.addr = alloca ptr, align 8
  %env = alloca ptr, align 8
  %lock = alloca %"class.node::MutexBase<node::LibuvMutexTraits>::ScopedLock", align 8
  store ptr %this, ptr %this.addr, align 8
  store ptr %data, ptr %data.addr, align 8
  %0 = load ptr, ptr %data.addr, align 8
  store ptr %0, ptr %env, align 8
  call void @_ZN4node9MutexBaseINS_16LibuvMutexTraitsEE10ScopedLockC2ERKS2_(ptr noundef nonnull align 8 dereferenceable(8) %lock, ptr noundef nonnull align 8 dereferenceable(40) @_ZN4node9inspector12_GLOBAL__N_127start_io_thread_async_mutexE)
  store ptr null, ptr @_ZN4node9inspector12_GLOBAL__N_121start_io_thread_asyncE, align 8
  call void @_ZN4node9MutexBaseINS_16LibuvMutexTraitsEE10ScopedLockD2Ev(ptr noundef nonnull align 8 dereferenceable(8) %lock) #3
  %1 = load ptr, ptr %env, align 8
  call void @"_ZN4node11Environment11CloseHandleI10uv_async_sZZNS_9inspector5Agent5StartERKNSt7__cxx1112basic_stringIcSt11char_traitsIcESaIcEEERKNS_12DebugOptionsESt10shared_ptrINS_15ExclusiveAccessINS_8HostPortENS_9MutexBaseINS_16LibuvMutexTraitsEEEEEEbENK3$_0clEPvEUlPS2_E_EEvPT_T0_"(ptr noundef nonnull align 8 dereferenceable(2872) %1, ptr noundef @_ZN4node9inspector12_GLOBAL__N_121start_io_thread_asyncE)
  ret void
}

; Function Attrs: mustprogress nounwind uwtable
define internal void @"_ZZN4node9inspector5Agent5StartERKNSt7__cxx1112basic_stringIcSt11char_traitsIcESaIcEEERKNS_12DebugOptionsESt10shared_ptrINS_15ExclusiveAccessINS_8HostPortENS_9MutexBaseINS_16LibuvMutexTraitsEEEEEEbEN3$_08__invokeEPv"(ptr noundef %data) #4 align 2 {
entry:
  %data.addr = alloca ptr, align 8
  %unused.capture = alloca %class.anon, align 1
  store ptr %data, ptr %data.addr, align 8
  %0 = load ptr, ptr %data.addr, align 8
  call void @"_ZZN4node9inspector5Agent5StartERKNSt7__cxx1112basic_stringIcSt11char_traitsIcESaIcEEERKNS_12DebugOptionsESt10shared_ptrINS_15ExclusiveAccessINS_8HostPortENS_9MutexBaseINS_16LibuvMutexTraitsEEEEEEbENK3$_0clEPv"(ptr noundef nonnull align 1 dereferenceable(1) %unused.capture, ptr noundef %0)
  ret void
}