; Function Attrs: mustprogress nounwind uwtable
define internal void @"_ZZN4node9inspector5Agent5StartERKNSt7__cxx1112basic_stringIcSt11char_traitsIcESaIcEEERKNS_12DebugOptionsESt10shared_ptrINS_15ExclusiveAccessINS_8HostPortENS_9MutexBaseINS_16LibuvMutexTraitsEEEEEEbEN3$_08__invokeEPv"(ptr noundef %data) #3 align 2 {
entry:
  tail call void @uv_mutex_lock(ptr noundef nonnull @_ZN4node9inspector12_GLOBAL__N_127start_io_thread_async_mutexE) #23
  store ptr null, ptr @_ZN4node9inspector12_GLOBAL__N_121start_io_thread_asyncE, align 8
  tail call void @uv_mutex_unlock(ptr noundef nonnull @_ZN4node9inspector12_GLOBAL__N_127start_io_thread_async_mutexE) #23
  %handle_cleanup_waiting_.i.i = getelementptr inbounds i8, ptr %data, i64 2232
  %0 = load i32, ptr %handle_cleanup_waiting_.i.i, align 8
  %inc.i.i = add nsw i32 %0, 1
  store i32 %inc.i.i, ptr %handle_cleanup_waiting_.i.i, align 8
  %call.i.i = tail call noalias noundef nonnull dereferenceable(24) ptr @_Znwm(i64 noundef 24) #26
  store ptr %data, ptr %call.i.i, align 16
  %original_data.i.i = getelementptr inbounds i8, ptr %call.i.i, i64 16
  %1 = load ptr, ptr @_ZN4node9inspector12_GLOBAL__N_121start_io_thread_asyncE, align 8
  store ptr %1, ptr %original_data.i.i, align 16
  store ptr %call.i.i, ptr @_ZN4node9inspector12_GLOBAL__N_121start_io_thread_asyncE, align 8
  tail call void @uv_close(ptr noundef nonnull @_ZN4node9inspector12_GLOBAL__N_121start_io_thread_asyncE, ptr noundef nonnull @"_ZZN4node11Environment11CloseHandleI10uv_async_sZZNS_9inspector5Agent5StartERKNSt7__cxx1112basic_stringIcSt11char_traitsIcESaIcEEERKNS_12DebugOptionsESt10shared_ptrINS_15ExclusiveAccessINS_8HostPortENS_9MutexBaseINS_16LibuvMutexTraitsEEEEEEbENK3$_0clEPvEUlPS2_E_EEvPT_T0_ENUlP11uv_handle_sE_8__invokeESW_") #23
  ret void
}